target datalayout = "e-m:e-p270:32:32-p271:32:32-p272:64:64-i64:64-i128:128-f80:128-n8:16:32:64-S128"
target triple = "x86_64-pc-linux-gnu"

%"class.llvm::SmallVectorBase" = type { ptr, i32, i32 }
%"class.llvm::SmallVectorImpl.110" = type { %"class.llvm::SmallVectorTemplateBase.111" }
%"class.llvm::SmallVectorTemplateBase.111" = type { %"class.llvm::SmallVectorTemplateCommon.112" }
%"class.llvm::SmallVectorTemplateCommon.112" = type { %"class.llvm::SmallVectorBase.113" }
%"class.llvm::SmallVectorBase.113" = type { ptr, i64, i64 }
%"class.llvm::SMLoc" = type { ptr }
%"class.llvm::MCFixup" = type { ptr, i32, i32, %"class.llvm::SMLoc" }
%"class.llvm::MCEncodedFragment" = type { %"class.llvm::MCFragment.base", i8, ptr }
%"class.llvm::MCFragment.base" = type <{ ptr, ptr, i64, i32, i8, i8 }>
%"class.llvm::SmallVectorImpl.193" = type { %"class.llvm::SmallVectorTemplateBase.194" }
%"class.llvm::SmallVectorTemplateBase.194" = type { %"class.llvm::SmallVectorTemplateCommon.195" }
%"class.llvm::SmallVectorTemplateCommon.195" = type { %"class.llvm::SmallVectorBase" }
%"class.llvm::MCEncodedFragmentWithFixups.197" = type { %"class.llvm::MCEncodedFragment", %"class.llvm::SmallVector.198", %"class.llvm::SmallVector.200" }
%"class.llvm::SmallVector.198" = type { %"class.llvm::SmallVectorImpl.110", %"struct.llvm::SmallVectorStorage.199" }
%"struct.llvm::SmallVectorStorage.199" = type { [32 x i8] }
%"class.llvm::SmallVector.200" = type { %"class.llvm::SmallVectorImpl.193", %"struct.llvm::SmallVectorStorage.201" }
%"struct.llvm::SmallVectorStorage.201" = type { [96 x i8] }

; Function Attrs: mustprogress nounwind uwtable
define linkonce_odr hidden void @_ZN4llvm7MCFixupC2Ev(ptr noundef nonnull align 8 dereferenceable(24) %0) unnamed_addr #0 comdat align 2 {
  %2 = alloca ptr, align 8
  store ptr %0, ptr %2, align 8
  %3 = load ptr, ptr %2, align 8
  %4 = getelementptr inbounds nuw %"class.llvm::MCFixup", ptr %3, i32 0, i32 0
  store ptr null, ptr %4, align 8
  %5 = getelementptr inbounds nuw %"class.llvm::MCFixup", ptr %3, i32 0, i32 1
  store i32 0, ptr %5, align 8
  %6 = getelementptr inbounds nuw %"class.llvm::MCFixup", ptr %3, i32 0, i32 2
  store i32 0, ptr %6, align 4
  %7 = getelementptr inbounds nuw %"class.llvm::MCFixup", ptr %3, i32 0, i32 3
  call void @_ZN4llvm5SMLocC2Ev(ptr noundef nonnull align 8 dereferenceable(8) %7) #10
  ret void
}

; Function Attrs: mustprogress nounwind uwtable
define linkonce_odr hidden void @_ZN4llvm7MCFixup6createEjPKNS_6MCExprENS_11MCFixupKindENS_5SMLocE(ptr dead_on_unwind noalias writable sret(%"class.llvm::MCFixup") align 8 %0, i32 noundef %1, ptr noundef %2, i32 noundef %3, ptr %4) #0 comdat align 2 {
  %6 = alloca %"class.llvm::SMLoc", align 8
  %7 = alloca i32, align 4
  %8 = alloca ptr, align 8
  %9 = alloca i32, align 4
  %10 = getelementptr inbounds nuw %"class.llvm::SMLoc", ptr %6, i32 0, i32 0
  store ptr %4, ptr %10, align 8
  store i32 %1, ptr %7, align 4
  store ptr %2, ptr %8, align 8
  store i32 %3, ptr %9, align 4
  call void @_ZN4llvm7MCFixupC2Ev(ptr noundef nonnull align 8 dereferenceable(24) %0) #10
  %11 = load ptr, ptr %8, align 8
  %12 = getelementptr inbounds nuw %"class.llvm::MCFixup", ptr %0, i32 0, i32 0
  store ptr %11, ptr %12, align 8
  %13 = load i32, ptr %7, align 4
  %14 = getelementptr inbounds nuw %"class.llvm::MCFixup", ptr %0, i32 0, i32 1
  store i32 %13, ptr %14, align 8
  %15 = load i32, ptr %9, align 4
  %16 = getelementptr inbounds nuw %"class.llvm::MCFixup", ptr %0, i32 0, i32 2
  store i32 %15, ptr %16, align 4
  %17 = getelementptr inbounds nuw %"class.llvm::MCFixup", ptr %0, i32 0, i32 3
  call void @llvm.memcpy.p0.p0.i64(ptr align 8 %17, ptr align 8 %6, i64 8, i1 false)
  ret void
}

; Function Attrs: mustprogress nounwind uwtable
define linkonce_odr hidden void @_ZN4llvm5SMLocC2Ev(ptr noundef nonnull align 8 dereferenceable(8) %0) unnamed_addr #0 comdat align 2 {
  %2 = alloca ptr, align 8
  store ptr %0, ptr %2, align 8
  %3 = load ptr, ptr %2, align 8
  %4 = getelementptr inbounds nuw %"class.llvm::SMLoc", ptr %3, i32 0, i32 0
  store ptr null, ptr %4, align 8
  ret void
}

; Function Attrs: mustprogress nounwind uwtable
define linkonce_odr hidden noundef nonnull align 8 dereferenceable(24) ptr @_ZN4llvm27MCEncodedFragmentWithFixupsILj32ELj4EE11getContentsEv(ptr noundef nonnull align 8 dereferenceable(208) %0) #0 comdat align 2 {
  %2 = alloca ptr, align 8
  store ptr %0, ptr %2, align 8
  %3 = load ptr, ptr %2, align 8
  %4 = getelementptr inbounds nuw %"class.llvm::MCEncodedFragmentWithFixups.197", ptr %3, i32 0, i32 1
  ret ptr %4
}

; Function Attrs: mustprogress nounwind uwtable
define linkonce_odr hidden noundef nonnull align 8 dereferenceable(16) ptr @_ZN4llvm27MCEncodedFragmentWithFixupsILj32ELj4EE9getFixupsEv(ptr noundef nonnull align 8 dereferenceable(208) %0) #0 comdat align 2 {
  %2 = alloca ptr, align 8
  store ptr %0, ptr %2, align 8
  %3 = load ptr, ptr %2, align 8
  %4 = getelementptr inbounds nuw %"class.llvm::MCEncodedFragmentWithFixups.197", ptr %3, i32 0, i32 2
  ret ptr %4
}

; Function Attrs: mustprogress nounwind uwtable
define dso_local void @_ZN4llvm16MCObjectStreamer16emitGPRel32ValueEPKNS_6MCExprE(ptr noundef nonnull align 8 dereferenceable(424) %0, ptr noundef %1) unnamed_addr #0 align 2 {
  %3 = alloca ptr, align 8
  %4 = alloca ptr, align 8
  %5 = alloca ptr, align 8
  %6 = alloca %"class.llvm::MCFixup", align 8
  %7 = alloca %"class.llvm::SMLoc", align 8
  store ptr %0, ptr %3, align 8
  store ptr %1, ptr %4, align 8
  %8 = load ptr, ptr %3, align 8
  %9 = call noundef ptr @_ZN4llvm16MCObjectStreamer23getOrCreateDataFragmentEPKNS_15MCSubtargetInfoE(ptr noundef nonnull align 8 dereferenceable(424) %8, ptr noundef null)
  store ptr %9, ptr %5, align 8
  %10 = load ptr, ptr %5, align 8
  %11 = call noundef nonnull align 8 dereferenceable(16) ptr @_ZN4llvm27MCEncodedFragmentWithFixupsILj32ELj4EE9getFixupsEv(ptr noundef nonnull align 8 dereferenceable(208) %10)
  %12 = load ptr, ptr %5, align 8
  %13 = call noundef nonnull align 8 dereferenceable(24) ptr @_ZN4llvm27MCEncodedFragmentWithFixupsILj32ELj4EE11getContentsEv(ptr noundef nonnull align 8 dereferenceable(208) %12)
  %14 = call noundef i64 @_ZNK4llvm15SmallVectorBaseImE4sizeEv(ptr noundef nonnull align 8 dereferenceable(24) %13)
  %15 = trunc i64 %14 to i32
  %16 = load ptr, ptr %4, align 8
  call void @llvm.memset.p0.i64(ptr align 8 %7, i8 0, i64 8, i1 false)
  call void @_ZN4llvm5SMLocC2Ev(ptr noundef nonnull align 8 dereferenceable(8) %7) #10
  %17 = getelementptr inbounds nuw %"class.llvm::SMLoc", ptr %7, i32 0, i32 0
  %18 = load ptr, ptr %17, align 8
  call void @_ZN4llvm7MCFixup6createEjPKNS_6MCExprENS_11MCFixupKindENS_5SMLocE(ptr dead_on_unwind writable sret(%"class.llvm::MCFixup") align 8 %6, i32 noundef %15, ptr noundef %16, i32 noundef 12, ptr %18)
  call void @_ZN4llvm23SmallVectorTemplateBaseINS_7MCFixupELb1EE9push_backERKS1_(ptr noundef nonnull align 8 dereferenceable(16) %11, ptr noundef nonnull align 8 dereferenceable(24) %6)
  %19 = load ptr, ptr %5, align 8
  %20 = call noundef nonnull align 8 dereferenceable(24) ptr @_ZN4llvm27MCEncodedFragmentWithFixupsILj32ELj4EE11getContentsEv(ptr noundef nonnull align 8 dereferenceable(208) %19)
  %21 = load ptr, ptr %5, align 8
  %22 = call noundef nonnull align 8 dereferenceable(24) ptr @_ZN4llvm27MCEncodedFragmentWithFixupsILj32ELj4EE11getContentsEv(ptr noundef nonnull align 8 dereferenceable(208) %21)
  %23 = call noundef i64 @_ZNK4llvm15SmallVectorBaseImE4sizeEv(ptr noundef nonnull align 8 dereferenceable(24) %22)
  %24 = add i64 %23, 4
  call void @_ZN4llvm15SmallVectorImplIcE6resizeEmc(ptr noundef nonnull align 8 dereferenceable(24) %20, i64 noundef %24, i8 noundef signext 0)
  ret void
}